target datalayout = "e-m:e-p270:32:32-p271:32:32-p272:64:64-i64:64-i128:128-f80:128-n8:16:32:64-S128"
target triple = "x86_64-pc-linux-gnu"

%struct.AVCodecContext = type { ptr, i32, i32, ptr, i32, i32, ptr, ptr, ptr, i64, i32, i32, ptr, i32, %struct.AVRational, %struct.AVRational, %struct.AVRational, i32, i32, i32, i32, i32, %struct.AVRational, i32, i32, i32, i32, i32, i32, i32, i32, i32, i32, i32, ptr, ptr, i32, float, float, float, float, float, float, float, float, float, i32, i32, i32, i32, i32, i32, i32, i32, i32, i32, i32, i32, ptr, ptr, ptr, i32, i32, i32, i32, i32, i32, i32, i32, i32, i32, %struct.AVChannelLayout, i32, i32, i32, i32, i32, i32, i32, i32, ptr, i32, i32, i32, float, float, i32, i32, i32, i32, i32, ptr, i64, i64, float, float, i32, i32, ptr, ptr, i32, i32, i32, i32, i32, ptr, ptr, ptr, ptr, i32, i32, [8 x i64], i32, i32, i32, i32, i32, i32, i32, ptr, ptr, i32, i32, i32, i32, i32, i32, i32, i32, i32, i32, ptr, ptr, i32, i32, ptr, ptr, ptr, ptr, i32, i32, i64, i32, i32, i64, ptr, i64, ptr, i32, ptr, i32 }
%struct.AVRational = type { i32, i32 }
%struct.AVChannelLayout = type { i32, i32, %union.anon.0, ptr }
%union.anon.0 = type { i64 }
%struct.MP3On4DecodeContext = type { i32, i32, ptr, [5 x ptr] }

; Function Attrs: cold nounwind optsize uwtable
define internal i32 @decode_close_mp3on4(ptr noundef %0) #0 {
  %2 = alloca ptr, align 8
  %3 = alloca ptr, align 8
  %4 = alloca i32, align 4
  store ptr %0, ptr %2, align 8, !tbaa !4
  call void @llvm.lifetime.start.p0(i64 8, ptr %3) #13
  %5 = load ptr, ptr %2, align 8, !tbaa !4
  %6 = getelementptr inbounds nuw %struct.AVCodecContext, ptr %5, i32 0, i32 6
  %7 = load ptr, ptr %6, align 8, !tbaa !9
  store ptr %7, ptr %3, align 8, !tbaa !78
  call void @llvm.lifetime.start.p0(i64 4, ptr %4) #13
  store i32 0, ptr %4, align 4, !tbaa !56
  br label %8

8:                                                ; preds = %20, %1
  %9 = load i32, ptr %4, align 4, !tbaa !56
  %10 = load ptr, ptr %3, align 8, !tbaa !78
  %11 = getelementptr inbounds nuw %struct.MP3On4DecodeContext, ptr %10, i32 0, i32 0
  %12 = load i32, ptr %11, align 8, !tbaa !84
  %13 = icmp slt i32 %9, %12
  br i1 %13, label %14, label %23

14:                                               ; preds = %8
  %15 = load ptr, ptr %3, align 8, !tbaa !78
  %16 = getelementptr inbounds nuw %struct.MP3On4DecodeContext, ptr %15, i32 0, i32 3
  %17 = load i32, ptr %4, align 4, !tbaa !56
  %18 = sext i32 %17 to i64
  %19 = getelementptr inbounds [5 x ptr], ptr %16, i64 0, i64 %18
  call void @av_freep(ptr noundef %19)
  br label %20

20:                                               ; preds = %14
  %21 = load i32, ptr %4, align 4, !tbaa !56
  %22 = add nsw i32 %21, 1
  store i32 %22, ptr %4, align 4, !tbaa !56
  br label %8, !llvm.loop !100

23:                                               ; preds = %8
  call void @llvm.lifetime.end.p0(i64 4, ptr %4) #13
  call void @llvm.lifetime.end.p0(i64 8, ptr %3) #13
  ret i32 0
}